target datalayout = "e-m:e-p270:32:32-p271:32:32-p272:64:64-i64:64-i128:128-f80:128-n8:16:32:64-S128"
target triple = "x86_64-pc-linux-gnu"

%struct.curl_version_info_data = type { i32, ptr, i32, ptr, i32, ptr, i64, ptr, ptr, ptr, i32, ptr, i32, ptr, i32, ptr, i32, ptr, ptr, ptr, ptr, i32, ptr, ptr, ptr, ptr, ptr }

; Function Attrs: mustprogress uwtable
define dso_local noundef ptr @_Z17cm_curl_easy_initv() #5 {
  %1 = alloca ptr, align 8
  %2 = alloca ptr, align 8
  call void @llvm.lifetime.start.p0(i64 8, ptr %1) #3
  %3 = call ptr @curl_easy_init()
  store ptr %3, ptr %1, align 8, !tbaa !24
  call void @llvm.lifetime.start.p0(i64 8, ptr %2) #3
  %4 = call ptr @curl_version_info(i32 noundef 0)
  store ptr %4, ptr %2, align 8, !tbaa !38
  %5 = load ptr, ptr %2, align 8, !tbaa !38
  %6 = icmp ne ptr %5, null
  br i1 %6, label %7, label %21

7:                                                ; preds = %0
  %8 = load ptr, ptr %2, align 8, !tbaa !38
  %9 = getelementptr inbounds nuw %struct.curl_version_info_data, ptr %8, i32 0, i32 2
  %10 = load i32, ptr %9, align 8, !tbaa !40
  %11 = icmp uge i32 %10, 526080
  br i1 %11, label %12, label %20

12:                                               ; preds = %7
  %13 = load ptr, ptr %2, align 8, !tbaa !38
  %14 = getelementptr inbounds nuw %struct.curl_version_info_data, ptr %13, i32 0, i32 2
  %15 = load i32, ptr %14, align 8, !tbaa !40
  %16 = icmp ult i32 %15, 526336
  br i1 %16, label %17, label %20

17:                                               ; preds = %12
  %18 = load ptr, ptr %1, align 8, !tbaa !24
  %19 = call i32 (ptr, i32, ...) @curl_easy_setopt(ptr noundef %18, i32 noundef 84, i32 noundef 2)
  br label %20

20:                                               ; preds = %17, %12, %7
  br label %21

21:                                               ; preds = %20, %0
  call void @llvm.lifetime.end.p0(i64 8, ptr %2) #3
  %22 = load ptr, ptr %1, align 8, !tbaa !24
  call void @llvm.lifetime.end.p0(i64 8, ptr %1) #3
  ret ptr %22
}