; Function Attrs: mustprogress uwtable
define dso_local noundef ptr @_Z17cm_curl_easy_initv() local_unnamed_addr #7 {
  %1 = tail call ptr @curl_easy_init()
  %2 = tail call ptr @curl_version_info(i32 noundef 0)
  %.not = icmp eq ptr %2, null
  br i1 %.not, label %9, label %3

3:                                                ; preds = %0
  %4 = getelementptr inbounds nuw i8, ptr %2, i64 16
  %5 = load i32, ptr %4, align 8, !tbaa !36
  %6 = and i32 %5, -256
  %or.cond = icmp eq i32 %6, 526080
  br i1 %or.cond, label %7, label %9

7:                                                ; preds = %3
  %8 = tail call i32 (ptr, i32, ...) @curl_easy_setopt(ptr noundef %1, i32 noundef 84, i32 noundef 2)
  br label %9

9:                                                ; preds = %3, %7, %0
  ret ptr %1
}